; Function Attrs: mustprogress noreturn nounwind uwtable
define dso_local void @_ZN4llvm25llvm_unreachable_internalEPKcS1_j(ptr noundef %0, ptr noundef %1, i32 noundef %2) local_unnamed_addr #1 {
  %.not = icmp eq ptr %0, null
  br i1 %.not, label %_ZN4llvm11raw_ostreamlsEPKc.exit9, label %_ZN4llvm9StringRefC2EPKc.exit.i

_ZN4llvm9StringRefC2EPKc.exit.i:                  ; preds = %3
  %4 = tail call noundef nonnull align 8 dereferenceable(48) ptr @_ZN4llvm4dbgsEv() #12
  %5 = tail call noundef i64 @strlen(ptr noundef nonnull dereferenceable(1) %0) #12
  %6 = getelementptr inbounds nuw i8, ptr %4, i64 24
  %7 = load ptr, ptr %6, align 8
  %8 = getelementptr inbounds nuw i8, ptr %4, i64 32
  %9 = load ptr, ptr %8, align 8
  %10 = ptrtoint ptr %7 to i64
  %11 = ptrtoint ptr %9 to i64
  %12 = sub i64 %10, %11
  %13 = icmp ugt i64 %5, %12
  br i1 %13, label %14, label %16

14:                                               ; preds = %_ZN4llvm9StringRefC2EPKc.exit.i
  %15 = tail call noundef nonnull align 8 dereferenceable(48) ptr @_ZN4llvm11raw_ostream5writeEPKcm(ptr noundef nonnull align 8 dereferenceable(48) %4, ptr noundef nonnull %0, i64 noundef %5) #12
  %.phi.trans.insert = getelementptr inbounds nuw i8, ptr %15, i64 32
  %.pre = load ptr, ptr %.phi.trans.insert, align 8
  br label %_ZN4llvm11raw_ostreamlsEPKc.exit

16:                                               ; preds = %_ZN4llvm9StringRefC2EPKc.exit.i
  %.not.i2.i = icmp eq i64 %5, 0
  br i1 %.not.i2.i, label %_ZN4llvm11raw_ostreamlsEPKc.exit, label %17

17:                                               ; preds = %16
  tail call void @llvm.memcpy.p0.p0.i64(ptr align 1 %9, ptr nonnull align 1 %0, i64 %5, i1 false)
  %18 = load ptr, ptr %8, align 8
  %19 = getelementptr inbounds i8, ptr %18, i64 %5
  store ptr %19, ptr %8, align 8
  br label %_ZN4llvm11raw_ostreamlsEPKc.exit

_ZN4llvm11raw_ostreamlsEPKc.exit:                 ; preds = %14, %16, %17
  %20 = phi ptr [ %.pre, %14 ], [ %19, %17 ], [ %9, %16 ]
  %.0.i.i = phi ptr [ %15, %14 ], [ %4, %17 ], [ %4, %16 ]
  %21 = getelementptr inbounds nuw i8, ptr %.0.i.i, i64 24
  %22 = load ptr, ptr %21, align 8
  %23 = icmp eq ptr %22, %20
  br i1 %23, label %24, label %26

24:                                               ; preds = %_ZN4llvm11raw_ostreamlsEPKc.exit
  %25 = tail call noundef nonnull align 8 dereferenceable(48) ptr @_ZN4llvm11raw_ostream5writeEPKcm(ptr noundef nonnull align 8 dereferenceable(48) %.0.i.i, ptr noundef nonnull @.str.1, i64 noundef 1) #12
  br label %_ZN4llvm11raw_ostreamlsEPKc.exit9

26:                                               ; preds = %_ZN4llvm11raw_ostreamlsEPKc.exit
  %27 = getelementptr inbounds nuw i8, ptr %.0.i.i, i64 32
  store i8 10, ptr %20, align 1
  %28 = load ptr, ptr %27, align 8
  %29 = getelementptr inbounds nuw i8, ptr %28, i64 1
  store ptr %29, ptr %27, align 8
  br label %_ZN4llvm11raw_ostreamlsEPKc.exit9

_ZN4llvm11raw_ostreamlsEPKc.exit9:                ; preds = %26, %24, %3
  %30 = tail call noundef nonnull align 8 dereferenceable(48) ptr @_ZN4llvm4dbgsEv() #12
  %31 = getelementptr inbounds nuw i8, ptr %30, i64 24
  %32 = load ptr, ptr %31, align 8
  %33 = getelementptr inbounds nuw i8, ptr %30, i64 32
  %34 = load ptr, ptr %33, align 8
  %35 = ptrtoint ptr %32 to i64
  %36 = ptrtoint ptr %34 to i64
  %37 = sub i64 %35, %36
  %38 = icmp ult i64 %37, 20
  br i1 %38, label %39, label %41

39:                                               ; preds = %_ZN4llvm11raw_ostreamlsEPKc.exit9
  %40 = tail call noundef nonnull align 8 dereferenceable(48) ptr @_ZN4llvm11raw_ostream5writeEPKcm(ptr noundef nonnull align 8 dereferenceable(48) %30, ptr noundef nonnull @.str.3, i64 noundef 20) #12
  br label %_ZN4llvm11raw_ostreamlsEPKc.exit13

41:                                               ; preds = %_ZN4llvm11raw_ostreamlsEPKc.exit9
  tail call void @llvm.memcpy.p0.p0.i64(ptr noundef nonnull align 1 dereferenceable(20) %34, ptr noundef nonnull align 1 dereferenceable(20) @.str.3, i64 20, i1 false)
  %42 = load ptr, ptr %33, align 8
  %43 = getelementptr inbounds nuw i8, ptr %42, i64 20
  store ptr %43, ptr %33, align 8
  br label %_ZN4llvm11raw_ostreamlsEPKc.exit13

_ZN4llvm11raw_ostreamlsEPKc.exit13:               ; preds = %39, %41
  %.not5 = icmp eq ptr %1, null
  br i1 %.not5, label %86, label %44

44:                                               ; preds = %_ZN4llvm11raw_ostreamlsEPKc.exit13
  %45 = tail call noundef nonnull align 8 dereferenceable(48) ptr @_ZN4llvm4dbgsEv() #12
  %46 = getelementptr inbounds nuw i8, ptr %45, i64 24
  %47 = load ptr, ptr %46, align 8
  %48 = getelementptr inbounds nuw i8, ptr %45, i64 32
  %49 = load ptr, ptr %48, align 8
  %50 = ptrtoint ptr %47 to i64
  %51 = ptrtoint ptr %49 to i64
  %52 = sub i64 %50, %51
  %53 = icmp ult i64 %52, 4
  br i1 %53, label %54, label %56

54:                                               ; preds = %44
  %55 = tail call noundef nonnull align 8 dereferenceable(48) ptr @_ZN4llvm11raw_ostream5writeEPKcm(ptr noundef nonnull align 8 dereferenceable(48) %45, ptr noundef nonnull @.str.4, i64 noundef 4) #12
  %.phi.trans.insert27 = getelementptr inbounds nuw i8, ptr %55, i64 32
  %.pre28 = load ptr, ptr %.phi.trans.insert27, align 8
  br label %_ZN4llvm9StringRefC2EPKc.exit.i19

56:                                               ; preds = %44
  store i32 544497952, ptr %49, align 1
  %57 = load ptr, ptr %48, align 8
  %58 = getelementptr inbounds nuw i8, ptr %57, i64 4
  store ptr %58, ptr %48, align 8
  br label %_ZN4llvm9StringRefC2EPKc.exit.i19

_ZN4llvm9StringRefC2EPKc.exit.i19:                ; preds = %56, %54
  %59 = phi ptr [ %.pre28, %54 ], [ %58, %56 ]
  %.0.i.i16 = phi ptr [ %55, %54 ], [ %45, %56 ]
  %60 = tail call noundef i64 @strlen(ptr noundef nonnull dereferenceable(1) %1) #12
  %61 = getelementptr inbounds nuw i8, ptr %.0.i.i16, i64 24
  %62 = load ptr, ptr %61, align 8
  %63 = getelementptr inbounds nuw i8, ptr %.0.i.i16, i64 32
  %64 = ptrtoint ptr %62 to i64
  %65 = ptrtoint ptr %59 to i64
  %66 = sub i64 %64, %65
  %67 = icmp ugt i64 %60, %66
  br i1 %67, label %68, label %70

68:                                               ; preds = %_ZN4llvm9StringRefC2EPKc.exit.i19
  %69 = tail call noundef nonnull align 8 dereferenceable(48) ptr @_ZN4llvm11raw_ostream5writeEPKcm(ptr noundef nonnull align 8 dereferenceable(48) %.0.i.i16, ptr noundef nonnull %1, i64 noundef %60) #12
  %.phi.trans.insert29 = getelementptr inbounds nuw i8, ptr %69, i64 32
  %.pre30 = load ptr, ptr %.phi.trans.insert29, align 8
  br label %_ZN4llvm11raw_ostreamlsEPKc.exit22

70:                                               ; preds = %_ZN4llvm9StringRefC2EPKc.exit.i19
  %.not.i2.i20 = icmp eq i64 %60, 0
  br i1 %.not.i2.i20, label %_ZN4llvm11raw_ostreamlsEPKc.exit22, label %71

71:                                               ; preds = %70
  tail call void @llvm.memcpy.p0.p0.i64(ptr align 1 %59, ptr nonnull align 1 %1, i64 %60, i1 false)
  %72 = load ptr, ptr %63, align 8
  %73 = getelementptr inbounds i8, ptr %72, i64 %60
  store ptr %73, ptr %63, align 8
  br label %_ZN4llvm11raw_ostreamlsEPKc.exit22

_ZN4llvm11raw_ostreamlsEPKc.exit22:               ; preds = %68, %70, %71
  %74 = phi ptr [ %.pre30, %68 ], [ %73, %71 ], [ %59, %70 ]
  %.0.i.i21 = phi ptr [ %69, %68 ], [ %.0.i.i16, %71 ], [ %.0.i.i16, %70 ]
  %75 = getelementptr inbounds nuw i8, ptr %.0.i.i21, i64 24
  %76 = load ptr, ptr %75, align 8
  %77 = icmp eq ptr %76, %74
  br i1 %77, label %78, label %80

78:                                               ; preds = %_ZN4llvm11raw_ostreamlsEPKc.exit22
  %79 = tail call noundef nonnull align 8 dereferenceable(48) ptr @_ZN4llvm11raw_ostream5writeEPKcm(ptr noundef nonnull align 8 dereferenceable(48) %.0.i.i21, ptr noundef nonnull @.str.5, i64 noundef 1) #12
  br label %_ZN4llvm11raw_ostreamlsEPKc.exit26

80:                                               ; preds = %_ZN4llvm11raw_ostreamlsEPKc.exit22
  %81 = getelementptr inbounds nuw i8, ptr %.0.i.i21, i64 32
  store i8 58, ptr %74, align 1
  %82 = load ptr, ptr %81, align 8
  %83 = getelementptr inbounds nuw i8, ptr %82, i64 1
  store ptr %83, ptr %81, align 8
  br label %_ZN4llvm11raw_ostreamlsEPKc.exit26

_ZN4llvm11raw_ostreamlsEPKc.exit26:               ; preds = %78, %80
  %.0.i.i25 = phi ptr [ %79, %78 ], [ %.0.i.i21, %80 ]
  %84 = zext i32 %2 to i64
  %85 = tail call noundef nonnull align 8 dereferenceable(48) ptr @_ZN4llvm11raw_ostreamlsEm(ptr noundef nonnull align 8 dereferenceable(48) %.0.i.i25, i64 noundef %84) #12
  br label %86

86:                                               ; preds = %_ZN4llvm11raw_ostreamlsEPKc.exit26, %_ZN4llvm11raw_ostreamlsEPKc.exit13
  %87 = tail call noundef nonnull align 8 dereferenceable(48) ptr @_ZN4llvm4dbgsEv() #12
  %88 = tail call noundef nonnull align 8 dereferenceable(48) ptr @_ZN4llvm11raw_ostreamlsEPKc(ptr noundef nonnull align 8 dereferenceable(48) %87, ptr noundef nonnull @.str.6)
  tail call void @abort() #13
  unreachable
}